target datalayout = "e-m:e-p270:32:32-p271:32:32-p272:64:64-i64:64-i128:128-f80:128-n8:16:32:64-S128"
target triple = "x86_64-pc-linux-gnu"

%struct.encode_test_case = type { ptr, ptr, i64, ptr }
%struct.wpacket_st = type { ptr, ptr, i64, i64, i64, ptr, i8 }
%struct.PACKET = type { ptr, i64 }
%struct.buf_mem_st = type { i64, ptr, i64, i64 }

@.str.5 = private unnamed_addr constant [33 x i8] c"../openssl/test/quic_wire_test.c\00", align 1
@.str.6 = private unnamed_addr constant [20 x i8] c"buf = BUF_MEM_new()\00", align 1
@.str.7 = private unnamed_addr constant [25 x i8] c"WPACKET_init(&wpkt, buf)\00", align 1
@.str.8 = private unnamed_addr constant [2 x i8] c"1\00", align 1
@.str.9 = private unnamed_addr constant [21 x i8] c"c->serializer(&wpkt)\00", align 1
@.str.10 = private unnamed_addr constant [43 x i8] c"WPACKET_get_total_written(&wpkt, &written)\00", align 1
@.str.11 = private unnamed_addr constant [10 x i8] c"buf->data\00", align 1
@.str.12 = private unnamed_addr constant [14 x i8] c"c->expect_buf\00", align 1
@.str.13 = private unnamed_addr constant [59 x i8] c"PACKET_buf_init(&pkt, (unsigned char *)buf->data, written)\00", align 1
@.str.14 = private unnamed_addr constant [26 x i8] c"c->deserializer(&pkt, -1)\00", align 1
@.str.15 = private unnamed_addr constant [23 x i8] c"PACKET_remaining(&pkt)\00", align 1
@.str.16 = private unnamed_addr constant [58 x i8] c"PACKET_buf_init(&pkt2, (unsigned char *)c->expect_buf, i)\00", align 1
@.str.17 = private unnamed_addr constant [26 x i8] c"c->deserializer(&pkt2, i)\00", align 1

; Function Attrs: inlinehint nounwind uwtable
define internal i64 @PACKET_remaining(ptr noundef %0) #3 {
  %2 = alloca ptr, align 8
  store ptr %0, ptr %2, align 8, !tbaa !40
  %3 = load ptr, ptr %2, align 8, !tbaa !40
  %4 = getelementptr inbounds nuw %struct.PACKET, ptr %3, i32 0, i32 1
  %5 = load i64, ptr %4, align 8, !tbaa !43
  ret i64 %5
}

; Function Attrs: inlinehint nounwind uwtable
define internal i32 @PACKET_buf_init(ptr noundef %0, ptr noundef %1, i64 noundef %2) #3 {
  %4 = alloca i32, align 4
  %5 = alloca ptr, align 8
  %6 = alloca ptr, align 8
  %7 = alloca i64, align 8
  store ptr %0, ptr %5, align 8, !tbaa !40
  store ptr %1, ptr %6, align 8, !tbaa !39
  store i64 %2, ptr %7, align 8, !tbaa !19
  %8 = load i64, ptr %7, align 8, !tbaa !19
  %9 = icmp ugt i64 %8, 9223372036854775807
  br i1 %9, label %10, label %11

10:                                               ; preds = %3
  store i32 0, ptr %4, align 4
  br label %18

11:                                               ; preds = %3
  %12 = load ptr, ptr %6, align 8, !tbaa !39
  %13 = load ptr, ptr %5, align 8, !tbaa !40
  %14 = getelementptr inbounds nuw %struct.PACKET, ptr %13, i32 0, i32 0
  store ptr %12, ptr %14, align 8, !tbaa !41
  %15 = load i64, ptr %7, align 8, !tbaa !19
  %16 = load ptr, ptr %5, align 8, !tbaa !40
  %17 = getelementptr inbounds nuw %struct.PACKET, ptr %16, i32 0, i32 1
  store i64 %15, ptr %17, align 8, !tbaa !43
  store i32 1, ptr %4, align 4
  br label %18

18:                                               ; preds = %11, %10
  %19 = load i32, ptr %4, align 4
  ret i32 %19
}

; Function Attrs: nounwind uwtable
define internal i32 @test_wire_encode(i32 noundef %0) #0 {
  %2 = alloca i32, align 4
  %3 = alloca i32, align 4
  %4 = alloca i32, align 4
  %5 = alloca %struct.wpacket_st, align 8
  %6 = alloca %struct.PACKET, align 8
  %7 = alloca ptr, align 8
  %8 = alloca i64, align 8
  %9 = alloca ptr, align 8
  %10 = alloca i32, align 4
  %11 = alloca i64, align 8
  %12 = alloca %struct.PACKET, align 8
  %13 = alloca i32, align 4
  store i32 %0, ptr %3, align 4, !tbaa !4
  call void @llvm.lifetime.start.p0(i64 4, ptr %4) #5
  store i32 0, ptr %4, align 4, !tbaa !4
  call void @llvm.lifetime.start.p0(i64 56, ptr %5) #5
  call void @llvm.lifetime.start.p0(i64 16, ptr %6) #5
  call void @llvm.lifetime.start.p0(i64 8, ptr %7) #5
  store ptr null, ptr %7, align 8, !tbaa !8
  call void @llvm.lifetime.start.p0(i64 8, ptr %8) #5
  call void @llvm.lifetime.start.p0(i64 8, ptr %9) #5
  %14 = load i32, ptr %3, align 4, !tbaa !4
  %15 = sext i32 %14 to i64
  %16 = getelementptr inbounds [24 x %struct.encode_test_case], ptr @encode_cases, i64 0, i64 %15
  store ptr %16, ptr %9, align 8, !tbaa !11
  call void @llvm.lifetime.start.p0(i64 4, ptr %10) #5
  store i32 0, ptr %10, align 4, !tbaa !4
  call void @llvm.lifetime.start.p0(i64 8, ptr %11) #5
  %17 = call ptr @BUF_MEM_new()
  store ptr %17, ptr %7, align 8, !tbaa !8
  %18 = call i32 @test_ptr(ptr noundef @.str.5, i32 noundef 1236, ptr noundef @.str.6, ptr noundef %17)
  %19 = icmp ne i32 %18, 0
  br i1 %19, label %21, label %20

20:                                               ; preds = %1
  br label %111

21:                                               ; preds = %1
  %22 = load ptr, ptr %7, align 8, !tbaa !8
  %23 = call i32 @WPACKET_init(ptr noundef %5, ptr noundef %22)
  %24 = call i32 @test_int_eq(ptr noundef @.str.5, i32 noundef 1239, ptr noundef @.str.7, ptr noundef @.str.8, i32 noundef %23, i32 noundef 1)
  %25 = icmp ne i32 %24, 0
  br i1 %25, label %27, label %26

26:                                               ; preds = %21
  br label %111

27:                                               ; preds = %21
  store i32 1, ptr %10, align 4, !tbaa !4
  %28 = load ptr, ptr %9, align 8, !tbaa !11
  %29 = getelementptr inbounds nuw %struct.encode_test_case, ptr %28, i32 0, i32 0
  %30 = load ptr, ptr %29, align 8, !tbaa !13
  %31 = call i32 %30(ptr noundef %5)
  %32 = call i32 @test_int_eq(ptr noundef @.str.5, i32 noundef 1243, ptr noundef @.str.9, ptr noundef @.str.8, i32 noundef %31, i32 noundef 1)
  %33 = icmp ne i32 %32, 0
  br i1 %33, label %35, label %34

34:                                               ; preds = %27
  br label %111

35:                                               ; preds = %27
  %36 = call i32 @WPACKET_get_total_written(ptr noundef %5, ptr noundef %8)
  %37 = call i32 @test_int_eq(ptr noundef @.str.5, i32 noundef 1246, ptr noundef @.str.10, ptr noundef @.str.8, i32 noundef %36, i32 noundef 1)
  %38 = icmp ne i32 %37, 0
  br i1 %38, label %40, label %39

39:                                               ; preds = %35
  br label %111

40:                                               ; preds = %35
  %41 = load ptr, ptr %7, align 8, !tbaa !8
  %42 = getelementptr inbounds nuw %struct.buf_mem_st, ptr %41, i32 0, i32 1
  %43 = load ptr, ptr %42, align 8, !tbaa !17
  %44 = load i64, ptr %8, align 8, !tbaa !19
  %45 = load ptr, ptr %9, align 8, !tbaa !11
  %46 = getelementptr inbounds nuw %struct.encode_test_case, ptr %45, i32 0, i32 1
  %47 = load ptr, ptr %46, align 8, !tbaa !20
  %48 = load ptr, ptr %9, align 8, !tbaa !11
  %49 = getelementptr inbounds nuw %struct.encode_test_case, ptr %48, i32 0, i32 2
  %50 = load i64, ptr %49, align 8, !tbaa !21
  %51 = call i32 @test_mem_eq(ptr noundef @.str.5, i32 noundef 1249, ptr noundef @.str.11, ptr noundef @.str.12, ptr noundef %43, i64 noundef %44, ptr noundef %47, i64 noundef %50)
  %52 = icmp ne i32 %51, 0
  br i1 %52, label %54, label %53

53:                                               ; preds = %40
  br label %111

54:                                               ; preds = %40
  %55 = load ptr, ptr %7, align 8, !tbaa !8
  %56 = getelementptr inbounds nuw %struct.buf_mem_st, ptr %55, i32 0, i32 1
  %57 = load ptr, ptr %56, align 8, !tbaa !17
  %58 = load i64, ptr %8, align 8, !tbaa !19
  %59 = call i32 @PACKET_buf_init(ptr noundef %6, ptr noundef %57, i64 noundef %58)
  %60 = call i32 @test_int_eq(ptr noundef @.str.5, i32 noundef 1252, ptr noundef @.str.13, ptr noundef @.str.8, i32 noundef %59, i32 noundef 1)
  %61 = icmp ne i32 %60, 0
  br i1 %61, label %63, label %62

62:                                               ; preds = %54
  br label %111

63:                                               ; preds = %54
  %64 = load ptr, ptr %9, align 8, !tbaa !11
  %65 = getelementptr inbounds nuw %struct.encode_test_case, ptr %64, i32 0, i32 3
  %66 = load ptr, ptr %65, align 8, !tbaa !22
  %67 = call i32 %66(ptr noundef %6, i64 noundef -1)
  %68 = call i32 @test_int_eq(ptr noundef @.str.5, i32 noundef 1255, ptr noundef @.str.14, ptr noundef @.str.8, i32 noundef %67, i32 noundef 1)
  %69 = icmp ne i32 %68, 0
  br i1 %69, label %71, label %70

70:                                               ; preds = %63
  br label %111

71:                                               ; preds = %63
  %72 = call i64 @PACKET_remaining(ptr noundef %6)
  %73 = icmp ne i64 %72, 0
  %74 = zext i1 %73 to i32
  %75 = call i32 @test_false(ptr noundef @.str.5, i32 noundef 1258, ptr noundef @.str.15, i32 noundef %74)
  %76 = icmp ne i32 %75, 0
  br i1 %76, label %78, label %77

77:                                               ; preds = %71
  br label %111

78:                                               ; preds = %71
  store i64 0, ptr %11, align 8, !tbaa !19
  br label %79

79:                                               ; preds = %107, %78
  %80 = load i64, ptr %11, align 8, !tbaa !19
  %81 = load ptr, ptr %9, align 8, !tbaa !11
  %82 = getelementptr inbounds nuw %struct.encode_test_case, ptr %81, i32 0, i32 2
  %83 = load i64, ptr %82, align 8, !tbaa !21
  %84 = icmp ult i64 %80, %83
  br i1 %84, label %85, label %110

85:                                               ; preds = %79
  call void @llvm.lifetime.start.p0(i64 16, ptr %12) #5
  %86 = load ptr, ptr %9, align 8, !tbaa !11
  %87 = getelementptr inbounds nuw %struct.encode_test_case, ptr %86, i32 0, i32 1
  %88 = load ptr, ptr %87, align 8, !tbaa !20
  %89 = load i64, ptr %11, align 8, !tbaa !19
  %90 = call i32 @PACKET_buf_init(ptr noundef %12, ptr noundef %88, i64 noundef %89)
  %91 = call i32 @test_int_eq(ptr noundef @.str.5, i32 noundef 1271, ptr noundef @.str.16, ptr noundef @.str.8, i32 noundef %90, i32 noundef 1)
  %92 = icmp ne i32 %91, 0
  br i1 %92, label %94, label %93

93:                                               ; preds = %85
  store i32 2, ptr %13, align 4
  br label %104

94:                                               ; preds = %85
  %95 = load ptr, ptr %9, align 8, !tbaa !11
  %96 = getelementptr inbounds nuw %struct.encode_test_case, ptr %95, i32 0, i32 3
  %97 = load ptr, ptr %96, align 8, !tbaa !22
  %98 = load i64, ptr %11, align 8, !tbaa !19
  %99 = call i32 %97(ptr noundef %12, i64 noundef %98)
  %100 = call i32 @test_int_eq(ptr noundef @.str.5, i32 noundef 1274, ptr noundef @.str.17, ptr noundef @.str.8, i32 noundef %99, i32 noundef 1)
  %101 = icmp ne i32 %100, 0
  br i1 %101, label %103, label %102

102:                                              ; preds = %94
  store i32 2, ptr %13, align 4
  br label %104

103:                                              ; preds = %94
  store i32 0, ptr %13, align 4
  br label %104

104:                                              ; preds = %102, %93, %103
  call void @llvm.lifetime.end.p0(i64 16, ptr %12) #5
  %105 = load i32, ptr %13, align 4
  switch i32 %105, label %119 [
    i32 0, label %106
    i32 2, label %111
  ]

106:                                              ; preds = %104
  br label %107

107:                                              ; preds = %106
  %108 = load i64, ptr %11, align 8, !tbaa !19
  %109 = add i64 %108, 1
  store i64 %109, ptr %11, align 8, !tbaa !19
  br label %79, !llvm.loop !23

110:                                              ; preds = %79
  store i32 1, ptr %4, align 4, !tbaa !4
  br label %111

111:                                              ; preds = %110, %104, %77, %70, %62, %53, %39, %34, %26, %20
  %112 = load i32, ptr %10, align 4, !tbaa !4
  %113 = icmp ne i32 %112, 0
  br i1 %113, label %114, label %116

114:                                              ; preds = %111
  %115 = call i32 @WPACKET_finish(ptr noundef %5)
  br label %116

116:                                              ; preds = %114, %111
  %117 = load ptr, ptr %7, align 8, !tbaa !8
  call void @BUF_MEM_free(ptr noundef %117)
  %118 = load i32, ptr %4, align 4, !tbaa !4
  store i32 %118, ptr %2, align 4
  store i32 1, ptr %13, align 4
  br label %119

119:                                              ; preds = %116, %104
  call void @llvm.lifetime.end.p0(i64 8, ptr %11) #5
  call void @llvm.lifetime.end.p0(i64 4, ptr %10) #5
  call void @llvm.lifetime.end.p0(i64 8, ptr %9) #5
  call void @llvm.lifetime.end.p0(i64 8, ptr %8) #5
  call void @llvm.lifetime.end.p0(i64 8, ptr %7) #5
  call void @llvm.lifetime.end.p0(i64 16, ptr %6) #5
  call void @llvm.lifetime.end.p0(i64 56, ptr %5) #5
  call void @llvm.lifetime.end.p0(i64 4, ptr %4) #5
  %120 = load i32, ptr %2, align 4
  ret i32 %120
}