; Function Attrs: nounwind uwtable
define internal range(i32 0, 2) i32 @test_wire_encode(i32 noundef %0) #0 {
  %2 = alloca %struct.wpacket_st, align 8
  %3 = alloca %struct.PACKET, align 8
  %4 = alloca i64, align 8
  %5 = alloca %struct.PACKET, align 8
  call void @llvm.lifetime.start.p0(i64 56, ptr nonnull %2) #4
  call void @llvm.lifetime.start.p0(i64 16, ptr nonnull %3) #4
  call void @llvm.lifetime.start.p0(i64 8, ptr nonnull %4) #4
  %6 = sext i32 %0 to i64
  %7 = getelementptr inbounds [24 x %struct.encode_test_case], ptr @encode_cases, i64 0, i64 %6
  %8 = tail call ptr @BUF_MEM_new() #4
  %9 = tail call i32 @test_ptr(ptr noundef nonnull @.str.5, i32 noundef 1236, ptr noundef nonnull @.str.6, ptr noundef %8) #4
  %.not = icmp eq i32 %9, 0
  br i1 %.not, label %57, label %10

10:                                               ; preds = %1
  %11 = call i32 @WPACKET_init(ptr noundef nonnull %2, ptr noundef %8) #4
  %12 = call i32 @test_int_eq(ptr noundef nonnull @.str.5, i32 noundef 1239, ptr noundef nonnull @.str.7, ptr noundef nonnull @.str.8, i32 noundef %11, i32 noundef 1) #4
  %.not23 = icmp eq i32 %12, 0
  br i1 %.not23, label %57, label %13

13:                                               ; preds = %10
  %14 = load ptr, ptr %7, align 16, !tbaa !4
  %15 = call i32 %14(ptr noundef nonnull %2) #4
  %16 = call i32 @test_int_eq(ptr noundef nonnull @.str.5, i32 noundef 1243, ptr noundef nonnull @.str.9, ptr noundef nonnull @.str.8, i32 noundef %15, i32 noundef 1) #4
  %.not24 = icmp eq i32 %16, 0
  br i1 %.not24, label %.loopexit, label %17

17:                                               ; preds = %13
  %18 = call i32 @WPACKET_get_total_written(ptr noundef nonnull %2, ptr noundef nonnull %4) #4
  %19 = call i32 @test_int_eq(ptr noundef nonnull @.str.5, i32 noundef 1246, ptr noundef nonnull @.str.10, ptr noundef nonnull @.str.8, i32 noundef %18, i32 noundef 1) #4
  %.not25 = icmp eq i32 %19, 0
  br i1 %.not25, label %.loopexit, label %20

20:                                               ; preds = %17
  %21 = getelementptr inbounds nuw i8, ptr %8, i64 8
  %22 = load ptr, ptr %21, align 8, !tbaa !11
  %23 = load i64, ptr %4, align 8, !tbaa !13
  %24 = getelementptr inbounds nuw i8, ptr %7, i64 8
  %25 = load ptr, ptr %24, align 8, !tbaa !14
  %26 = getelementptr inbounds nuw i8, ptr %7, i64 16
  %27 = load i64, ptr %26, align 16, !tbaa !15
  %28 = call i32 @test_mem_eq(ptr noundef nonnull @.str.5, i32 noundef 1249, ptr noundef nonnull @.str.11, ptr noundef nonnull @.str.12, ptr noundef %22, i64 noundef %23, ptr noundef %25, i64 noundef %27) #4
  %.not26 = icmp eq i32 %28, 0
  br i1 %.not26, label %.loopexit, label %29

29:                                               ; preds = %20
  %30 = load i64, ptr %4, align 8, !tbaa !13
  %31 = icmp slt i64 %30, 0
  br i1 %31, label %PACKET_buf_init.exit, label %32

32:                                               ; preds = %29
  %33 = load ptr, ptr %21, align 8, !tbaa !11
  store ptr %33, ptr %3, align 8, !tbaa !16
  %34 = getelementptr inbounds nuw i8, ptr %3, i64 8
  store i64 %30, ptr %34, align 8, !tbaa !18
  br label %PACKET_buf_init.exit

PACKET_buf_init.exit:                             ; preds = %29, %32
  %.0.i = phi i32 [ 1, %32 ], [ 0, %29 ]
  %35 = call i32 @test_int_eq(ptr noundef nonnull @.str.5, i32 noundef 1252, ptr noundef nonnull @.str.13, ptr noundef nonnull @.str.8, i32 noundef %.0.i, i32 noundef 1) #4
  %.not27 = icmp eq i32 %35, 0
  br i1 %.not27, label %.loopexit, label %36

36:                                               ; preds = %PACKET_buf_init.exit
  %37 = getelementptr inbounds nuw i8, ptr %7, i64 24
  %38 = load ptr, ptr %37, align 8, !tbaa !19
  %39 = call i32 %38(ptr noundef nonnull %3, i64 noundef -1) #4
  %40 = call i32 @test_int_eq(ptr noundef nonnull @.str.5, i32 noundef 1255, ptr noundef nonnull @.str.14, ptr noundef nonnull @.str.8, i32 noundef %39, i32 noundef 1) #4
  %.not28 = icmp eq i32 %40, 0
  br i1 %.not28, label %.loopexit, label %41

41:                                               ; preds = %36
  %42 = getelementptr inbounds nuw i8, ptr %3, i64 8
  %.val = load i64, ptr %42, align 8, !tbaa !18
  %43 = icmp ne i64 %.val, 0
  %44 = zext i1 %43 to i32
  %45 = call i32 @test_false(ptr noundef nonnull @.str.5, i32 noundef 1258, ptr noundef nonnull @.str.15, i32 noundef %44) #4
  %.not29 = icmp eq i32 %45, 0
  br i1 %.not29, label %.loopexit, label %.preheader

.preheader:                                       ; preds = %41
  %.not45 = icmp eq i64 %27, 0
  br i1 %.not45, label %.loopexit, label %.lr.ph

.lr.ph:                                           ; preds = %.preheader
  %46 = getelementptr inbounds nuw i8, ptr %5, i64 8
  br label %47

47:                                               ; preds = %.lr.ph, %54
  %.01944 = phi i64 [ 0, %.lr.ph ], [ %55, %54 ]
  call void @llvm.lifetime.start.p0(i64 16, ptr nonnull %5) #4
  %48 = icmp slt i64 %.01944, 0
  br i1 %48, label %PACKET_buf_init.exit35, label %49

49:                                               ; preds = %47
  store ptr %25, ptr %5, align 8, !tbaa !16
  store i64 %.01944, ptr %46, align 8, !tbaa !18
  br label %PACKET_buf_init.exit35

PACKET_buf_init.exit35:                           ; preds = %47, %49
  %.0.i34 = phi i32 [ 1, %49 ], [ 0, %47 ]
  %50 = call i32 @test_int_eq(ptr noundef nonnull @.str.5, i32 noundef 1271, ptr noundef nonnull @.str.16, ptr noundef nonnull @.str.8, i32 noundef %.0.i34, i32 noundef 1) #4
  %.not30 = icmp eq i32 %50, 0
  br i1 %.not30, label %.thread, label %51

51:                                               ; preds = %PACKET_buf_init.exit35
  %52 = call i32 %38(ptr noundef nonnull %5, i64 noundef %.01944) #4
  %53 = call i32 @test_int_eq(ptr noundef nonnull @.str.5, i32 noundef 1274, ptr noundef nonnull @.str.17, ptr noundef nonnull @.str.8, i32 noundef %52, i32 noundef 1) #4
  %.not31 = icmp eq i32 %53, 0
  br i1 %.not31, label %.thread, label %54

.thread:                                          ; preds = %PACKET_buf_init.exit35, %51
  call void @llvm.lifetime.end.p0(i64 16, ptr nonnull %5) #4
  br label %.loopexit

54:                                               ; preds = %51
  call void @llvm.lifetime.end.p0(i64 16, ptr nonnull %5) #4
  %55 = add nuw i64 %.01944, 1
  %exitcond.not = icmp eq i64 %55, %27
  br i1 %exitcond.not, label %.loopexit, label %47, !llvm.loop !20

.loopexit:                                        ; preds = %54, %.preheader, %41, %36, %PACKET_buf_init.exit, %20, %17, %13, %.thread
  %.022.ph = phi i32 [ 0, %.thread ], [ 0, %13 ], [ 0, %17 ], [ 0, %20 ], [ 0, %PACKET_buf_init.exit ], [ 0, %36 ], [ 0, %41 ], [ 1, %.preheader ], [ 1, %54 ]
  %56 = call i32 @WPACKET_finish(ptr noundef nonnull %2) #4
  br label %57

57:                                               ; preds = %1, %10, %.loopexit
  %.02243 = phi i32 [ %.022.ph, %.loopexit ], [ 0, %10 ], [ 0, %1 ]
  call void @BUF_MEM_free(ptr noundef %8) #4
  call void @llvm.lifetime.end.p0(i64 8, ptr nonnull %4) #4
  call void @llvm.lifetime.end.p0(i64 16, ptr nonnull %3) #4
  call void @llvm.lifetime.end.p0(i64 56, ptr nonnull %2) #4
  ret i32 %.02243
}